; Function Attrs: mustprogress uwtable
define internal noundef float @_ZN12_GLOBAL__N_19tab_bondsIL18BondedKernelFlavor3EEEfiPKiPK9t_iparamsPA3_KfPA4_fPA3_fPK5t_pbcfPfN3gmx8ArrayRefIS7_EEP8t_fcdataP12t_disresdataP12t_oriresdataPi(i32 noundef %0, ptr nocapture noundef readonly %1, ptr nocapture noundef readonly %2, ptr noundef %3, ptr nocapture noundef %4, ptr nocapture readnone %5, ptr noundef %6, float noundef %7, ptr nocapture noundef %8, ptr nocapture noundef readnone byval(%"class.gmx::ArrayRef") align 8 %9, ptr nocapture noundef readonly %10, ptr nocapture readnone %11, ptr nocapture readnone %12, ptr nocapture readnone %13) #4 {
  %15 = alloca float, align 4
  %16 = alloca float, align 4
  %17 = alloca [3 x float], align 8
  %.not.i = icmp eq ptr %6, null
  %18 = getelementptr inbounds i8, ptr %17, i64 8
  %19 = sext i32 %0 to i64
  br label %.outer

.outer:                                           ; preds = %_ZN12_GLOBAL__N_116spreadBondForcesIL18BondedKernelFlavor3EEEvfPKfiiPA4_fiPA3_f.exit, %14
  %.035.ph = phi i64 [ %indvars.iv.next, %_ZN12_GLOBAL__N_116spreadBondForcesIL18BondedKernelFlavor3EEEvfPKfiiPA4_fiPA3_f.exit ], [ 0, %14 ]
  %.0.ph = phi float [ %83, %_ZN12_GLOBAL__N_116spreadBondForcesIL18BondedKernelFlavor3EEEvfPKfiiPA4_fiPA3_f.exit ], [ 0.000000e+00, %14 ]
  %sext = shl i64 %.035.ph, 32
  %20 = ashr exact i64 %sext, 32
  br label %21

21:                                               ; preds = %.outer, %_ZN12_GLOBAL__N_112pbc_rvec_subEPK5t_pbcPKfS4_Pf.exit
  %indvars.iv = phi i64 [ %20, %.outer ], [ %indvars.iv.next, %_ZN12_GLOBAL__N_112pbc_rvec_subEPK5t_pbcPKfS4_Pf.exit ]
  %22 = icmp slt i64 %indvars.iv, %19
  br i1 %22, label %23, label %84

23:                                               ; preds = %21
  %24 = getelementptr inbounds i32, ptr %1, i64 %indvars.iv
  %25 = load i32, ptr %24, align 4
  %26 = getelementptr i8, ptr %24, i64 4
  %27 = load i32, ptr %26, align 4
  %indvars.iv.next = add nsw i64 %indvars.iv, 3
  %28 = getelementptr i8, ptr %24, i64 8
  %29 = load i32, ptr %28, align 4
  %30 = sext i32 %27 to i64
  %31 = getelementptr inbounds [3 x float], ptr %3, i64 %30
  %32 = sext i32 %29 to i64
  %33 = getelementptr inbounds [3 x float], ptr %3, i64 %32
  br i1 %.not.i, label %37, label %34

34:                                               ; preds = %23
  %35 = call noundef i32 @_Z11pbc_dx_aiucPK5t_pbcPKfS3_Pf(ptr noundef nonnull %6, ptr noundef %31, ptr noundef %33, ptr noundef nonnull %17)
  %36 = load <2 x float>, ptr %17, align 8
  %.pre45 = load float, ptr %18, align 8
  br label %_ZN12_GLOBAL__N_112pbc_rvec_subEPK5t_pbcPKfS4_Pf.exit

37:                                               ; preds = %23
  %38 = load <2 x float>, ptr %31, align 4
  %39 = load <2 x float>, ptr %33, align 4
  %40 = fsub <2 x float> %38, %39
  %41 = getelementptr inbounds i8, ptr %31, i64 8
  %42 = load float, ptr %41, align 4
  %43 = getelementptr inbounds i8, ptr %33, i64 8
  %44 = load float, ptr %43, align 4
  %45 = fsub float %42, %44
  store <2 x float> %40, ptr %17, align 8
  store float %45, ptr %18, align 8
  br label %_ZN12_GLOBAL__N_112pbc_rvec_subEPK5t_pbcPKfS4_Pf.exit

_ZN12_GLOBAL__N_112pbc_rvec_subEPK5t_pbcPKfS4_Pf.exit: ; preds = %34, %37
  %46 = phi float [ %.pre45, %34 ], [ %45, %37 ]
  %47 = phi <2 x float> [ %36, %34 ], [ %40, %37 ]
  %48 = fmul <2 x float> %47, %47
  %49 = extractelement <2 x float> %48, i64 1
  %50 = extractelement <2 x float> %47, i64 0
  %51 = call float @llvm.fmuladd.f32(float %50, float %50, float %49)
  %52 = call noundef float @llvm.fmuladd.f32(float %46, float %46, float %51)
  %sqrt = call float @llvm.sqrt.f32(float %52)
  %53 = fdiv float 1.000000e+00, %sqrt
  %54 = fmul float %52, %53
  %55 = sext i32 %25 to i64
  %56 = getelementptr inbounds %union.t_iparams, ptr %2, i64 %55
  %57 = load i32, ptr %56, align 4
  %58 = sext i32 %57 to i64
  %59 = load ptr, ptr %10, align 8
  %60 = getelementptr inbounds %struct.bondedtable_t, ptr %59, i64 %58
  %61 = getelementptr inbounds i8, ptr %56, i64 4
  %62 = load float, ptr %61, align 4
  %63 = getelementptr inbounds i8, ptr %56, i64 8
  %64 = load float, ptr %63, align 4
  %65 = call fastcc noundef float @_ZN12_GLOBAL__N_110bonded_tabEPKciPK13bondedtable_tffffPfS5_(ptr noundef nonnull @.str.9, i32 noundef %57, ptr noundef nonnull %60, float noundef %62, float noundef %64, float noundef %54, float noundef %7, ptr noundef nonnull %16, ptr noundef nonnull %15)
  %66 = load float, ptr %8, align 4
  %67 = fadd float %65, %66
  store float %67, ptr %8, align 4
  %68 = fcmp oeq float %52, 0.000000e+00
  br i1 %68, label %21, label %69, !llvm.loop !166

69:                                               ; preds = %_ZN12_GLOBAL__N_112pbc_rvec_subEPK5t_pbcPKfS4_Pf.exit
  %70 = load float, ptr %16, align 4
  %71 = load float, ptr %15, align 4
  %72 = fmul float %53, %71
  store float %72, ptr %15, align 4
  br label %73

73:                                               ; preds = %73, %69
  %indvars.iv.i = phi i64 [ 0, %69 ], [ %indvars.iv.next.i, %73 ]
  %74 = getelementptr inbounds float, ptr %17, i64 %indvars.iv.i
  %75 = load float, ptr %74, align 4
  %76 = fmul float %72, %75
  %77 = getelementptr inbounds [4 x float], ptr %4, i64 %30, i64 %indvars.iv.i
  %78 = load float, ptr %77, align 4
  %79 = fadd float %78, %76
  store float %79, ptr %77, align 4
  %80 = getelementptr inbounds [4 x float], ptr %4, i64 %32, i64 %indvars.iv.i
  %81 = load float, ptr %80, align 4
  %82 = fsub float %81, %76
  store float %82, ptr %80, align 4
  %indvars.iv.next.i = add nuw nsw i64 %indvars.iv.i, 1
  %exitcond.not.i = icmp eq i64 %indvars.iv.next.i, 3
  br i1 %exitcond.not.i, label %_ZN12_GLOBAL__N_116spreadBondForcesIL18BondedKernelFlavor3EEEvfPKfiiPA4_fiPA3_f.exit, label %73, !llvm.loop !161

_ZN12_GLOBAL__N_116spreadBondForcesIL18BondedKernelFlavor3EEEvfPKfiiPA4_fiPA3_f.exit: ; preds = %73
  %83 = fadd float %.0.ph, %70
  br label %.outer, !llvm.loop !166

84:                                               ; preds = %21
  ret float %.0.ph
}